; Function Attrs: nounwind uwtable
define internal void @stbir__horizontal_gather_2_channels_with_3_coeffs(ptr noundef writeonly captures(address) %0, i32 noundef %1, ptr noundef %2, ptr noundef readonly captures(none) %3, ptr noundef readonly captures(none) %4, i32 noundef %5) #22 {
  %7 = shl i32 %1, 1
  %8 = zext i32 %7 to i64
  %9 = getelementptr inbounds nuw float, ptr %0, i64 %8
  %10 = sext i32 %5 to i64
  br label %11

11:                                               ; preds = %11, %6
  %.027 = phi ptr [ %0, %6 ], [ %33, %11 ]
  %.026 = phi ptr [ %4, %6 ], [ %31, %11 ]
  %.0 = phi ptr [ %3, %6 ], [ %32, %11 ]
  %12 = load i32, ptr %.0, align 4
  %13 = shl nsw i32 %12, 1
  %14 = sext i32 %13 to i64
  %15 = getelementptr inbounds float, ptr %2, i64 %14
  tail call void asm sideeffect "", "r,~{dirflag},~{fpsr},~{flags}"(ptr %15) #54, !srcloc !492
  %16 = load <4 x float>, ptr %.026, align 1
  %17 = shufflevector <4 x float> %16, <4 x float> poison, <4 x i32> <i32 0, i32 0, i32 1, i32 1>
  %18 = load <4 x float>, ptr %15, align 1
  %19 = fmul <4 x float> %18, %17
  %20 = shufflevector <4 x float> %16, <4 x float> poison, <4 x i32> <i32 2, i32 2, i32 2, i32 2>
  %21 = getelementptr inbounds nuw i8, ptr %15, i64 16
  %22 = load i64, ptr %21, align 1
  %23 = insertelement <2 x i64> <i64 poison, i64 0>, i64 %22, i64 0
  %24 = bitcast <2 x i64> %23 to <4 x float>
  %25 = fmul <4 x float> %20, %24
  %26 = fadd <4 x float> %19, %25
  %27 = shufflevector <4 x float> %26, <4 x float> poison, <4 x i32> <i32 2, i32 3, i32 poison, i32 poison>
  %28 = fadd <4 x float> %26, %27
  %29 = bitcast <4 x float> %28 to <2 x i64>
  %30 = extractelement <2 x i64> %29, i64 0
  store i64 %30, ptr %.027, align 1
  %31 = getelementptr inbounds float, ptr %.026, i64 %10
  %32 = getelementptr inbounds nuw i8, ptr %.0, i64 8
  %33 = getelementptr inbounds nuw i8, ptr %.027, i64 8
  %34 = icmp ult ptr %33, %9
  br i1 %34, label %11, label %35, !llvm.loop !493

35:                                               ; preds = %11
  ret void
}